; Function Attrs: mustprogress uwtable
define hidden void @_ZN6regionC2Ev(ptr noundef nonnull align 8 dereferenceable(40) initializes((0, 40)) %this) unnamed_addr #3 align 2 {
entry:
  %m_curr_ptr = getelementptr inbounds nuw i8, ptr %this, i64 8
  %m_curr_end_ptr = getelementptr inbounds nuw i8, ptr %this, i64 16
  %m_free_pages = getelementptr inbounds nuw i8, ptr %this, i64 24
  tail call void @llvm.memset.p0.i64(ptr noundef nonnull align 8 dereferenceable(40) %this, i8 0, i64 40, i1 false)
  %call.i = tail call noundef ptr @_Z21allocate_default_pagePcRS_(ptr noundef null, ptr noundef nonnull align 8 dereferenceable(8) %m_free_pages)
  store ptr %call.i, ptr %this, align 8
  store ptr %call.i, ptr %m_curr_ptr, align 8
  %add.ptr.i.i = getelementptr inbounds nuw i8, ptr %call.i, i64 8184
  store ptr %add.ptr.i.i, ptr %m_curr_end_ptr, align 8
  ret void
}